target datalayout = "e-m:e-p270:32:32-p271:32:32-p272:64:64-i64:64-i128:128-f80:128-n8:16:32:64-S128"
target triple = "x86_64-pc-linux-gnu"

%struct.OnigEncodingTypeST = type { ptr, ptr, i32, i32, ptr, ptr, ptr, ptr, ptr, ptr, ptr, ptr, ptr, ptr, ptr, ptr, ptr, i32, i32 }
%struct.RBasic = type { i64, i64 }
%struct.RString = type { %struct.RBasic, i64, %union.anon }
%union.anon = type { %struct.anon }
%struct.anon = type { ptr, %union.anon.0 }
%union.anon.0 = type { i64 }
%struct.re_pattern_buffer = type { ptr, i32, i32, i32, i32, i32, i32, i32, i32, i32, i32, i32, i32, i32, ptr, ptr, ptr, ptr, i32, i32, i32, i32, i64, i64, i32, ptr, ptr, [256 x i8], ptr, ptr, i64, i64, i64, ptr }
%struct.RRegexp = type { %struct.RBasic, ptr, i64, i64 }
%struct.anon.1 = type { [1 x i8] }

@rb_eTypeError = external global i64, align 8
@.str.71 = private unnamed_addr constant [21 x i8] c"uninitialized Regexp\00", align 1
@.str.73 = private unnamed_addr constant [2 x i8] c"/\00", align 1
@.str.74 = private unnamed_addr constant [2 x i8] c"n\00", align 1

; Function Attrs: inlinehint nounwind sspstrong willreturn memory(read) uwtable
define internal i64 @RB_FL_TEST_RAW(i64 noundef %0, i64 noundef %1) #8 {
  %3 = alloca i64, align 8
  %4 = alloca i64, align 8
  store i64 %0, ptr %3, align 8, !tbaa !11
  store i64 %1, ptr %4, align 8, !tbaa !11
  %5 = load i64, ptr %3, align 8, !tbaa !11
  %6 = inttoptr i64 %5 to ptr
  %7 = getelementptr inbounds nuw %struct.RBasic, ptr %6, i32 0, i32 0
  %8 = load i64, ptr %7, align 8, !tbaa !65
  %9 = load i64, ptr %4, align 8, !tbaa !11
  %10 = and i64 %8, %9
  ret i64 %10
}

; Function Attrs: inlinehint nounwind sspstrong willreturn memory(read) uwtable
define internal zeroext i1 @RB_FL_ANY_RAW(i64 noundef %0, i64 noundef %1) #8 {
  %3 = alloca i64, align 8
  %4 = alloca i64, align 8
  store i64 %0, ptr %3, align 8, !tbaa !11
  store i64 %1, ptr %4, align 8, !tbaa !11
  %5 = load i64, ptr %3, align 8, !tbaa !11
  %6 = load i64, ptr %4, align 8, !tbaa !11
  %7 = call i64 @RB_FL_TEST_RAW(i64 noundef %5, i64 noundef %6) #29
  %8 = icmp ne i64 %7, 0
  ret i1 %8
}

; Function Attrs: inlinehint nounwind sspstrong willreturn memory(read) uwtable
define internal ptr @RREGEXP_SRC_PTR(i64 noundef %0) #8 {
  %2 = alloca i64, align 8
  store i64 %0, ptr %2, align 8, !tbaa !11
  %3 = load i64, ptr %2, align 8, !tbaa !11
  %4 = call i64 @RREGEXP_SRC(i64 noundef %3) #29
  %5 = call ptr @RSTRING_PTR(i64 noundef %4)
  ret ptr %5
}

; Function Attrs: inlinehint nounwind sspstrong willreturn memory(read, argmem: readwrite) uwtable
define internal void @rbimpl_rstring_getmem(ptr dead_on_unwind noalias writable sret(%struct.RString) align 8 %0, i64 noundef %1) #11 {
  %3 = alloca i64, align 8
  store i64 %1, ptr %3, align 8, !tbaa !11
  %4 = load i64, ptr %3, align 8, !tbaa !11
  %5 = call zeroext i1 @RB_FL_ANY_RAW(i64 noundef %4, i64 noundef 8192) #29
  br i1 %5, label %6, label %9

6:                                                ; preds = %2
  %7 = load i64, ptr %3, align 8, !tbaa !11
  %8 = inttoptr i64 %7 to ptr
  call void @llvm.memcpy.p0.p0.i64(ptr align 8 %0, ptr align 8 %8, i64 40, i1 false), !tbaa.struct !69
  br label %20

9:                                                ; preds = %2
  %10 = load i64, ptr %3, align 8, !tbaa !11
  %11 = call i64 @RSTRING_LEN(i64 noundef %10) #29
  %12 = getelementptr inbounds nuw %struct.RString, ptr %0, i32 0, i32 1
  store i64 %11, ptr %12, align 8, !tbaa !57
  %13 = load i64, ptr %3, align 8, !tbaa !11
  %14 = inttoptr i64 %13 to ptr
  %15 = getelementptr inbounds nuw %struct.RString, ptr %14, i32 0, i32 2
  %16 = getelementptr inbounds nuw %struct.anon.1, ptr %15, i32 0, i32 0
  %17 = getelementptr inbounds [1 x i8], ptr %16, i64 0, i64 0
  %18 = getelementptr inbounds nuw %struct.RString, ptr %0, i32 0, i32 2
  %19 = getelementptr inbounds nuw %struct.anon, ptr %18, i32 0, i32 0
  store ptr %17, ptr %19, align 8, !tbaa !15
  br label %20

20:                                               ; preds = %9, %6
  ret void
}

; Function Attrs: inlinehint nounwind sspstrong uwtable
define internal i32 @rb_enc_mbminlen(ptr noundef %0) #3 {
  %2 = alloca ptr, align 8
  store ptr %0, ptr %2, align 8, !tbaa !20
  %3 = load ptr, ptr %2, align 8, !tbaa !20
  %4 = getelementptr inbounds nuw %struct.OnigEncodingTypeST, ptr %3, i32 0, i32 3
  %5 = load i32, ptr %4, align 4, !tbaa !22
  ret i32 %5
}

; Function Attrs: inlinehint nounwind sspstrong uwtable
define internal i64 @rbimpl_strlen(ptr noundef nonnull %0) #3 {
  %2 = alloca ptr, align 8
  store ptr %0, ptr %2, align 8, !tbaa !13
  %3 = load ptr, ptr %2, align 8, !tbaa !13
  %4 = call i64 @strlen(ptr noundef %3) #29
  ret i64 %4
}

; Function Attrs: nounwind sspstrong uwtable
define internal ptr @option_to_str(ptr noundef %0, i32 noundef %1) #0 {
  %3 = alloca ptr, align 8
  %4 = alloca i32, align 4
  %5 = alloca ptr, align 8
  store ptr %0, ptr %3, align 8, !tbaa !13
  store i32 %1, ptr %4, align 4, !tbaa !16
  call void @llvm.lifetime.start.p0(i64 8, ptr %5) #28
  %6 = load ptr, ptr %3, align 8, !tbaa !13
  store ptr %6, ptr %5, align 8, !tbaa !13
  %7 = load i32, ptr %4, align 4, !tbaa !16
  %8 = and i32 %7, 4
  %9 = icmp ne i32 %8, 0
  br i1 %9, label %10, label %13

10:                                               ; preds = %2
  %11 = load ptr, ptr %5, align 8, !tbaa !13
  %12 = getelementptr i8, ptr %11, i32 1
  store ptr %12, ptr %5, align 8, !tbaa !13
  store i8 109, ptr %11, align 1, !tbaa !15
  br label %13

13:                                               ; preds = %10, %2
  %14 = load i32, ptr %4, align 4, !tbaa !16
  %15 = and i32 %14, 1
  %16 = icmp ne i32 %15, 0
  br i1 %16, label %17, label %20

17:                                               ; preds = %13
  %18 = load ptr, ptr %5, align 8, !tbaa !13
  %19 = getelementptr i8, ptr %18, i32 1
  store ptr %19, ptr %5, align 8, !tbaa !13
  store i8 105, ptr %18, align 1, !tbaa !15
  br label %20

20:                                               ; preds = %17, %13
  %21 = load i32, ptr %4, align 4, !tbaa !16
  %22 = and i32 %21, 2
  %23 = icmp ne i32 %22, 0
  br i1 %23, label %24, label %27

24:                                               ; preds = %20
  %25 = load ptr, ptr %5, align 8, !tbaa !13
  %26 = getelementptr i8, ptr %25, i32 1
  store ptr %26, ptr %5, align 8, !tbaa !13
  store i8 120, ptr %25, align 1, !tbaa !15
  br label %27

27:                                               ; preds = %24, %20
  %28 = load ptr, ptr %5, align 8, !tbaa !13
  store i8 0, ptr %28, align 1, !tbaa !15
  %29 = load ptr, ptr %3, align 8, !tbaa !13
  call void @llvm.lifetime.end.p0(i64 8, ptr %5) #28
  ret ptr %29
}

; Function Attrs: nounwind sspstrong uwtable
define internal void @rb_reg_check(i64 noundef %0) #0 {
  %2 = alloca i64, align 8
  store i64 %0, ptr %2, align 8, !tbaa !11
  %3 = load i64, ptr %2, align 8, !tbaa !11
  %4 = inttoptr i64 %3 to ptr
  %5 = getelementptr inbounds nuw %struct.RRegexp, ptr %4, i32 0, i32 1
  %6 = load ptr, ptr %5, align 8, !tbaa !50
  %7 = icmp ne ptr %6, null
  br i1 %7, label %8, label %16

8:                                                ; preds = %1
  %9 = load i64, ptr %2, align 8, !tbaa !11
  %10 = call i64 @RREGEXP_SRC(i64 noundef %9) #29
  %11 = icmp ne i64 %10, 0
  br i1 %11, label %12, label %16

12:                                               ; preds = %8
  %13 = load i64, ptr %2, align 8, !tbaa !11
  %14 = call ptr @RREGEXP_SRC_PTR(i64 noundef %13) #29
  %15 = icmp ne ptr %14, null
  br i1 %15, label %18, label %16

16:                                               ; preds = %12, %8, %1
  %17 = load i64, ptr @rb_eTypeError, align 8, !tbaa !11
  call void (i64, ptr, ...) @rb_raise(i64 noundef %17, ptr noundef @.str.71) #30
  unreachable

18:                                               ; preds = %12
  ret void
}

; Function Attrs: inlinehint nounwind sspstrong uwtable
define internal i64 @rbimpl_str_cat_cstr(i64 noundef %0, ptr noundef nonnull %1) #3 {
  %3 = alloca i64, align 8
  %4 = alloca ptr, align 8
  %5 = alloca i64, align 8
  store i64 %0, ptr %3, align 8, !tbaa !11
  store ptr %1, ptr %4, align 8, !tbaa !13
  call void @llvm.lifetime.start.p0(i64 8, ptr %5) #28
  %6 = load ptr, ptr %4, align 8, !tbaa !13
  %7 = call i64 @rbimpl_strlen(ptr noundef %6)
  store i64 %7, ptr %5, align 8, !tbaa !11
  %8 = load i64, ptr %3, align 8, !tbaa !11
  %9 = load ptr, ptr %4, align 8, !tbaa !13
  %10 = load i64, ptr %5, align 8, !tbaa !11
  %11 = call i64 @rb_str_cat(i64 noundef %8, ptr noundef %9, i64 noundef %10)
  call void @llvm.lifetime.end.p0(i64 8, ptr %5) #28
  ret i64 %11
}

; Function Attrs: inlinehint nounwind sspstrong willreturn memory(read) uwtable
define internal i64 @RSTRING_LEN(i64 noundef %0) #8 {
  %2 = alloca i64, align 8
  store i64 %0, ptr %2, align 8, !tbaa !11
  %3 = load i64, ptr %2, align 8, !tbaa !11
  %4 = inttoptr i64 %3 to ptr
  %5 = getelementptr inbounds nuw %struct.RString, ptr %4, i32 0, i32 1
  %6 = load i64, ptr %5, align 8, !tbaa !57
  ret i64 %6
}

; Function Attrs: inlinehint nounwind sspstrong uwtable
define internal ptr @RSTRING_PTR(i64 noundef %0) #3 {
  %2 = alloca i64, align 8
  %3 = alloca ptr, align 8
  %4 = alloca %struct.RString, align 8
  store i64 %0, ptr %2, align 8, !tbaa !11
  call void @llvm.lifetime.start.p0(i64 8, ptr %3) #28
  %5 = load i64, ptr %2, align 8, !tbaa !11
  call void @rbimpl_rstring_getmem(ptr dead_on_unwind writable sret(%struct.RString) align 8 %4, i64 noundef %5) #33
  %6 = getelementptr inbounds nuw %struct.RString, ptr %4, i32 0, i32 2
  %7 = getelementptr inbounds nuw %struct.anon, ptr %6, i32 0, i32 0
  %8 = load ptr, ptr %7, align 8, !tbaa !15
  store ptr %8, ptr %3, align 8, !tbaa !13
  %9 = load ptr, ptr %3, align 8, !tbaa !13
  call void @llvm.lifetime.end.p0(i64 8, ptr %3) #28
  ret ptr %9
}

; Function Attrs: inlinehint nounwind sspstrong willreturn memory(read) uwtable
define internal i64 @RREGEXP_SRC(i64 noundef %0) #8 {
  %2 = alloca i64, align 8
  %3 = alloca i64, align 8
  store i64 %0, ptr %2, align 8, !tbaa !11
  call void @llvm.lifetime.start.p0(i64 8, ptr %3) #28
  %4 = load i64, ptr %2, align 8, !tbaa !11
  %5 = inttoptr i64 %4 to ptr
  %6 = getelementptr inbounds nuw %struct.RRegexp, ptr %5, i32 0, i32 2
  %7 = load i64, ptr %6, align 8, !tbaa !66
  store i64 %7, ptr %3, align 8, !tbaa !11
  %8 = load i64, ptr %3, align 8, !tbaa !11
  call void @llvm.lifetime.end.p0(i64 8, ptr %3) #28
  ret i64 %8
}

; Function Attrs: inlinehint nounwind sspstrong uwtable
define internal zeroext i1 @rb_enc_asciicompat(ptr noundef %0) #3 {
  %2 = alloca i1, align 1
  %3 = alloca ptr, align 8
  store ptr %0, ptr %3, align 8, !tbaa !20
  %4 = load ptr, ptr %3, align 8, !tbaa !20
  %5 = call i32 @rb_enc_mbminlen(ptr noundef %4)
  %6 = icmp ne i32 %5, 1
  br i1 %6, label %7, label %8

7:                                                ; preds = %1
  store i1 false, ptr %2, align 1
  br label %14

8:                                                ; preds = %1
  %9 = load ptr, ptr %3, align 8, !tbaa !20
  %10 = call i32 @rb_enc_dummy_p(ptr noundef %9) #29
  %11 = icmp ne i32 %10, 0
  br i1 %11, label %12, label %13

12:                                               ; preds = %8
  store i1 false, ptr %2, align 1
  br label %14

13:                                               ; preds = %8
  store i1 true, ptr %2, align 1
  br label %14

14:                                               ; preds = %13, %12, %7
  %15 = load i1, ptr %2, align 1
  ret i1 %15
}

; Function Attrs: inlinehint nounwind sspstrong uwtable
define internal i64 @rbimpl_str_buf_new_cstr(ptr noundef nonnull %0) #3 {
  %2 = alloca ptr, align 8
  %3 = alloca i64, align 8
  %4 = alloca i64, align 8
  store ptr %0, ptr %2, align 8, !tbaa !13
  call void @llvm.lifetime.start.p0(i64 8, ptr %3) #28
  %5 = load ptr, ptr %2, align 8, !tbaa !13
  %6 = call i64 @rbimpl_strlen(ptr noundef %5)
  store i64 %6, ptr %3, align 8, !tbaa !11
  call void @llvm.lifetime.start.p0(i64 8, ptr %4) #28
  %7 = load i64, ptr %3, align 8, !tbaa !11
  %8 = call i64 @rb_str_buf_new(i64 noundef %7)
  store i64 %8, ptr %4, align 8, !tbaa !11
  %9 = load i64, ptr %4, align 8, !tbaa !11
  %10 = load ptr, ptr %2, align 8, !tbaa !13
  %11 = load i64, ptr %3, align 8, !tbaa !11
  %12 = call i64 @rb_str_buf_cat(i64 noundef %9, ptr noundef %10, i64 noundef %11)
  call void @llvm.lifetime.end.p0(i64 8, ptr %4) #28
  call void @llvm.lifetime.end.p0(i64 8, ptr %3) #28
  ret i64 %12
}

; Function Attrs: nounwind sspstrong uwtable
define internal i64 @rb_reg_desc(i64 noundef %0) #0 {
  %2 = alloca i64, align 8
  %3 = alloca ptr, align 8
  %4 = alloca i64, align 8
  %5 = alloca ptr, align 8
  %6 = alloca i64, align 8
  %7 = alloca ptr, align 8
  %8 = alloca ptr, align 8
  %9 = alloca [4 x i8], align 1
  store i64 %0, ptr %2, align 8, !tbaa !11
  call void @llvm.lifetime.start.p0(i64 8, ptr %3) #28
  %10 = load i64, ptr %2, align 8, !tbaa !11
  %11 = call ptr @rb_enc_get(i64 noundef %10)
  store ptr %11, ptr %3, align 8, !tbaa !20
  call void @llvm.lifetime.start.p0(i64 8, ptr %4) #28
  %12 = call i64 @rbimpl_str_buf_new_cstr(ptr noundef @.str.73)
  store i64 %12, ptr %4, align 8, !tbaa !11
  call void @llvm.lifetime.start.p0(i64 8, ptr %5) #28
  %13 = call ptr @rb_default_internal_encoding()
  store ptr %13, ptr %5, align 8, !tbaa !20
  %14 = load ptr, ptr %5, align 8, !tbaa !20
  %15 = icmp eq ptr %14, null
  br i1 %15, label %16, label %18

16:                                               ; preds = %1
  %17 = call ptr @rb_default_external_encoding()
  store ptr %17, ptr %5, align 8, !tbaa !20
  br label %18

18:                                               ; preds = %16, %1
  %19 = load i64, ptr %2, align 8, !tbaa !11
  %20 = icmp ne i64 %19, 0
  br i1 %20, label %21, label %27

21:                                               ; preds = %18
  %22 = load ptr, ptr %3, align 8, !tbaa !20
  %23 = call zeroext i1 @rb_enc_asciicompat(ptr noundef %22)
  br i1 %23, label %24, label %27

24:                                               ; preds = %21
  %25 = load i64, ptr %4, align 8, !tbaa !11
  %26 = load i64, ptr %2, align 8, !tbaa !11
  call void @rb_enc_copy(i64 noundef %25, i64 noundef %26)
  br label %31

27:                                               ; preds = %21, %18
  %28 = load i64, ptr %4, align 8, !tbaa !11
  %29 = call nonnull ptr @rb_usascii_encoding()
  %30 = call i64 @rb_enc_associate(i64 noundef %28, ptr noundef %29)
  br label %31

31:                                               ; preds = %27, %24
  call void @llvm.lifetime.start.p0(i64 8, ptr %6) #28
  %32 = load i64, ptr %2, align 8, !tbaa !11
  %33 = call i64 @RREGEXP_SRC(i64 noundef %32) #29
  store i64 %33, ptr %6, align 8, !tbaa !11
  %34 = load i64, ptr %4, align 8, !tbaa !11
  %35 = load i64, ptr %6, align 8, !tbaa !11
  %36 = call ptr @RSTRING_PTR(i64 noundef %35)
  %37 = load i64, ptr %6, align 8, !tbaa !11
  %38 = call i64 @RSTRING_LEN(i64 noundef %37) #29
  %39 = load ptr, ptr %3, align 8, !tbaa !20
  %40 = load ptr, ptr %5, align 8, !tbaa !20
  call void @rb_reg_expr_str(i64 noundef %34, ptr noundef %36, i64 noundef %38, ptr noundef %39, ptr noundef %40, i32 noundef 47)
  call void @llvm.lifetime.start.p0(i64 8, ptr %7) #28
  store ptr %6, ptr %7, align 8, !tbaa !62
  call void asm sideeffect "", "*m,~{dirflag},~{fpsr},~{flags}"(ptr elementtype(ptr) %7) #28, !srcloc !129
  %41 = load ptr, ptr %7, align 8, !tbaa !62
  store ptr %41, ptr %8, align 8, !tbaa !62
  call void @llvm.lifetime.end.p0(i64 8, ptr %7) #28
  %42 = load ptr, ptr %8, align 8, !tbaa !62
  %43 = load volatile i64, ptr %42, align 8, !tbaa !11
  %44 = load i64, ptr %4, align 8, !tbaa !11
  %45 = call i64 @rbimpl_str_cat_cstr(i64 noundef %44, ptr noundef @.str.73)
  %46 = load i64, ptr %2, align 8, !tbaa !11
  %47 = icmp ne i64 %46, 0
  br i1 %47, label %48, label %75

48:                                               ; preds = %31
  call void @llvm.lifetime.start.p0(i64 4, ptr %9) #28
  %49 = load i64, ptr %2, align 8, !tbaa !11
  call void @rb_reg_check(i64 noundef %49)
  %50 = getelementptr inbounds [4 x i8], ptr %9, i64 0, i64 0
  %51 = load i64, ptr %2, align 8, !tbaa !11
  %52 = inttoptr i64 %51 to ptr
  %53 = getelementptr inbounds nuw %struct.RRegexp, ptr %52, i32 0, i32 1
  %54 = load ptr, ptr %53, align 8, !tbaa !50
  %55 = getelementptr inbounds nuw %struct.re_pattern_buffer, ptr %54, i32 0, i32 13
  %56 = load i32, ptr %55, align 8, !tbaa !60
  %57 = call ptr @option_to_str(ptr noundef %50, i32 noundef %56)
  %58 = load i8, ptr %57, align 1, !tbaa !15
  %59 = icmp ne i8 %58, 0
  br i1 %59, label %60, label %64

60:                                               ; preds = %48
  %61 = load i64, ptr %4, align 8, !tbaa !11
  %62 = getelementptr inbounds [4 x i8], ptr %9, i64 0, i64 0
  %63 = call i64 @rb_str_cat_cstr(i64 noundef %61, ptr noundef %62)
  br label %64

64:                                               ; preds = %60, %48
  %65 = load i64, ptr %2, align 8, !tbaa !11
  %66 = inttoptr i64 %65 to ptr
  %67 = getelementptr inbounds nuw %struct.RBasic, ptr %66, i32 0, i32 0
  %68 = load i64, ptr %67, align 8, !tbaa !65
  %69 = and i64 %68, 262144
  %70 = icmp ne i64 %69, 0
  br i1 %70, label %71, label %74

71:                                               ; preds = %64
  %72 = load i64, ptr %4, align 8, !tbaa !11
  %73 = call i64 @rbimpl_str_cat_cstr(i64 noundef %72, ptr noundef @.str.74)
  br label %74

74:                                               ; preds = %71, %64
  call void @llvm.lifetime.end.p0(i64 4, ptr %9) #28
  br label %75

75:                                               ; preds = %74, %31
  %76 = load i64, ptr %4, align 8, !tbaa !11
  call void @llvm.lifetime.end.p0(i64 8, ptr %6) #28
  call void @llvm.lifetime.end.p0(i64 8, ptr %5) #28
  call void @llvm.lifetime.end.p0(i64 8, ptr %4) #28
  call void @llvm.lifetime.end.p0(i64 8, ptr %3) #28
  ret i64 %76
}