; Function Attrs: nounwind sspstrong uwtable
define internal fastcc i64 @rb_reg_desc(i64 noundef %0) unnamed_addr #2 {
  %2 = alloca i64, align 8
  %3 = alloca ptr, align 8
  %4 = alloca [4 x i8], align 1
  %5 = tail call ptr @rb_enc_get(i64 noundef %0) #29
  %6 = tail call i64 @rb_str_buf_new(i64 noundef 1) #29
  %7 = tail call i64 @rb_str_buf_cat(i64 noundef %6, ptr noundef nonnull @.str.73, i64 noundef 1) #29
  %8 = tail call ptr @rb_default_internal_encoding() #29
  %9 = icmp eq ptr %8, null
  br i1 %9, label %10, label %12

10:                                               ; preds = %1
  %11 = tail call ptr @rb_default_external_encoding() #29
  br label %12

12:                                               ; preds = %10, %1
  %.0 = phi ptr [ %11, %10 ], [ %8, %1 ]
  %.not = icmp eq i64 %0, 0
  br i1 %.not, label %.split20, label %13

13:                                               ; preds = %12
  %14 = getelementptr i8, ptr %5, i64 20
  %.val.i = load i32, ptr %14, align 4, !tbaa !12
  %.not.i = icmp eq i32 %.val.i, 1
  br i1 %.not.i, label %rb_enc_asciicompat.exit, label %.split20

rb_enc_asciicompat.exit:                          ; preds = %13
  %15 = tail call i32 @rb_enc_dummy_p(ptr noundef nonnull readonly %5) #28
  %.not3.i = icmp eq i32 %15, 0
  br i1 %.not3.i, label %.split, label %.split20

.split:                                           ; preds = %rb_enc_asciicompat.exit
  tail call void @rb_enc_copy(i64 noundef %7, i64 noundef %0) #29
  br label %18

.split20:                                         ; preds = %13, %rb_enc_asciicompat.exit, %12
  %16 = tail call nonnull ptr @rb_usascii_encoding() #29
  %17 = tail call i64 @rb_enc_associate(i64 noundef %7, ptr noundef nonnull %16) #29
  br label %18

18:                                               ; preds = %.split20, %.split
  call void @llvm.lifetime.start.p0(i64 8, ptr nonnull %2) #29
  %.pn = inttoptr i64 %0 to ptr
  %phi.call.in = getelementptr inbounds nuw i8, ptr %.pn, i64 24
  %phi.call = load i64, ptr %phi.call.in, align 8, !tbaa !52
  store i64 %phi.call, ptr %2, align 8, !tbaa !18
  %19 = inttoptr i64 %phi.call to ptr
  %20 = load i64, ptr %19, align 8, !tbaa !34, !noalias !246
  %21 = and i64 %20, 8192
  %.not.i.i = icmp eq i64 %21, 0
  %22 = getelementptr inbounds nuw i8, ptr %19, i64 24
  br i1 %.not.i.i, label %RSTRING_PTR.exit, label %23

23:                                               ; preds = %18
  %.sroa.2.0.copyload.i = load ptr, ptr %22, align 8
  br label %RSTRING_PTR.exit

RSTRING_PTR.exit:                                 ; preds = %18, %23
  %.sroa.2.0.i = phi ptr [ %.sroa.2.0.copyload.i, %23 ], [ %22, %18 ]
  %24 = getelementptr inbounds nuw i8, ptr %19, i64 16
  %25 = load i64, ptr %24, align 8, !tbaa !35
  tail call fastcc void @rb_reg_expr_str(i64 noundef %7, ptr noundef %.sroa.2.0.i, i64 noundef %25, ptr noundef %5, ptr noundef %.0, i32 noundef 47)
  call void @llvm.lifetime.start.p0(i64 8, ptr nonnull %3) #29
  store ptr %2, ptr %3, align 8, !tbaa !67
  call void asm sideeffect "", "*m,~{dirflag},~{fpsr},~{flags}"(ptr nonnull elementtype(ptr) %3) #29, !srcloc !249
  %26 = load ptr, ptr %3, align 8, !tbaa !67
  call void @llvm.lifetime.end.p0(i64 8, ptr nonnull %3) #29
  %27 = load volatile i64, ptr %26, align 8, !tbaa !18
  %28 = call i64 @rb_str_cat(i64 noundef %7, ptr noundef nonnull @.str.73, i64 noundef 1) #29
  br i1 %.not, label %63, label %29

29:                                               ; preds = %RSTRING_PTR.exit
  call void @llvm.lifetime.start.p0(i64 4, ptr nonnull %4) #29
  %30 = getelementptr inbounds nuw i8, ptr %.pn, i64 16
  %31 = load ptr, ptr %30, align 8, !tbaa !37
  %.not.i25 = icmp eq ptr %31, null
  br i1 %.not.i25, label %39, label %32

32:                                               ; preds = %29
  %33 = load i64, ptr %phi.call.in, align 8, !tbaa !52
  %.not3.i26 = icmp eq i64 %33, 0
  br i1 %.not3.i26, label %39, label %34

34:                                               ; preds = %32
  %35 = inttoptr i64 %33 to ptr
  %36 = load i64, ptr %35, align 8, !tbaa !34, !noalias !250
  %37 = and i64 %36, 8192
  %.not.i.i.i.i = icmp eq i64 %37, 0
  br i1 %.not.i.i.i.i, label %rb_reg_check.exit, label %RREGEXP_SRC_PTR.exit.i

RREGEXP_SRC_PTR.exit.i:                           ; preds = %34
  %38 = getelementptr inbounds nuw i8, ptr %35, i64 24
  %.sroa.2.0.copyload.i.i.i = load ptr, ptr %38, align 8
  %.not4.i = icmp eq ptr %.sroa.2.0.copyload.i.i.i, null
  br i1 %.not4.i, label %39, label %rb_reg_check.exit

39:                                               ; preds = %RREGEXP_SRC_PTR.exit.i, %32, %29
  %40 = load i64, ptr @rb_eTypeError, align 8, !tbaa !18
  call void (i64, ptr, ...) @rb_raise(i64 noundef %40, ptr noundef nonnull @.str.71) #30
  unreachable

rb_reg_check.exit:                                ; preds = %34, %RREGEXP_SRC_PTR.exit.i
  %41 = getelementptr inbounds nuw i8, ptr %31, i64 56
  %42 = load i32, ptr %41, align 8, !tbaa !61
  %43 = and i32 %42, 4
  %.not.i27 = icmp eq i32 %43, 0
  br i1 %.not.i27, label %46, label %44

44:                                               ; preds = %rb_reg_check.exit
  %45 = getelementptr inbounds nuw i8, ptr %4, i64 1
  store i8 109, ptr %4, align 1, !tbaa !7
  br label %46

46:                                               ; preds = %44, %rb_reg_check.exit
  %.0.i28 = phi ptr [ %45, %44 ], [ %4, %rb_reg_check.exit ]
  %47 = and i32 %42, 1
  %.not8.i = icmp eq i32 %47, 0
  br i1 %.not8.i, label %50, label %48

48:                                               ; preds = %46
  %49 = getelementptr i8, ptr %.0.i28, i64 1
  store i8 105, ptr %.0.i28, align 1, !tbaa !7
  br label %50

50:                                               ; preds = %48, %46
  %.1.i = phi ptr [ %49, %48 ], [ %.0.i28, %46 ]
  %51 = and i32 %42, 2
  %.not9.i = icmp eq i32 %51, 0
  br i1 %.not9.i, label %option_to_str.exit, label %52

52:                                               ; preds = %50
  %53 = getelementptr i8, ptr %.1.i, i64 1
  store i8 120, ptr %.1.i, align 1, !tbaa !7
  br label %option_to_str.exit

option_to_str.exit:                               ; preds = %50, %52
  %.2.i = phi ptr [ %53, %52 ], [ %.1.i, %50 ]
  store i8 0, ptr %.2.i, align 1, !tbaa !7
  %54 = load i8, ptr %4, align 1, !tbaa !7
  %.not23 = icmp eq i8 %54, 0
  br i1 %.not23, label %57, label %55

55:                                               ; preds = %option_to_str.exit
  %56 = call i64 @rb_str_cat_cstr(i64 noundef %7, ptr noundef nonnull %4) #29
  br label %57

57:                                               ; preds = %55, %option_to_str.exit
  %58 = load i64, ptr %.pn, align 8, !tbaa !34
  %59 = and i64 %58, 262144
  %.not24 = icmp eq i64 %59, 0
  br i1 %.not24, label %62, label %60

60:                                               ; preds = %57
  %61 = call i64 @rb_str_cat(i64 noundef %7, ptr noundef nonnull @.str.74, i64 noundef 1) #29
  br label %62

62:                                               ; preds = %60, %57
  call void @llvm.lifetime.end.p0(i64 4, ptr nonnull %4) #29
  br label %63

63:                                               ; preds = %62, %RSTRING_PTR.exit
  call void @llvm.lifetime.end.p0(i64 8, ptr nonnull %2) #29
  ret i64 %7
}